target datalayout = "e-m:e-p270:32:32-p271:32:32-p272:64:64-i64:64-i128:128-f80:128-n8:16:32:64-S128"
target triple = "x86_64-pc-linux-gnu"

%struct.PLpgSQL_execstate = type { ptr, ptr, ptr, i64, i8, i32, i32, i8, i8, i8, i8, ptr, ptr, ptr, ptr, ptr, ptr, ptr, i32, i32, ptr, ptr, ptr, ptr, ptr, ptr, ptr, ptr, ptr, ptr, i64, ptr, ptr, ptr, ptr, ptr }
%struct.Node = type { i32 }
%struct.ReturnSetInfo = type { i32, ptr, ptr, i32, i32, i32, ptr, ptr }

@.str.2 = private unnamed_addr constant [11 x i8] c"plpgsql-18\00", align 1
@.str.4 = private unnamed_addr constant [10 x i8] c"pl_exec.c\00", align 1
@.str.8 = private unnamed_addr constant [63 x i8] c"set-valued function called in context that cannot accept a set\00", align 1
@.str.9 = private unnamed_addr constant [65 x i8] c"materialize mode required, but it is not allowed in this context\00", align 1
@CurrentMemoryContext = external global ptr, align 8
@CurrentResourceOwner = external global ptr, align 8
@__func__.exec_init_tuple_store = private unnamed_addr constant [22 x i8] c"exec_init_tuple_store\00", align 1
@work_mem = external global i32, align 4

; Function Attrs: inlinehint nounwind uwtable
define internal ptr @MemoryContextSwitchTo(ptr noundef %0) #2 {
  %2 = alloca ptr, align 8
  %3 = alloca ptr, align 8
  store ptr %0, ptr %2, align 8
  call void @llvm.lifetime.start.p0(i64 8, ptr %3) #12
  %4 = load ptr, ptr @CurrentMemoryContext, align 8
  store ptr %4, ptr %3, align 8
  %5 = load ptr, ptr %2, align 8
  store ptr %5, ptr @CurrentMemoryContext, align 8
  %6 = load ptr, ptr %3, align 8
  call void @llvm.lifetime.end.p0(i64 8, ptr %3) #12
  ret ptr %6
}

; Function Attrs: nounwind uwtable
define internal void @exec_init_tuple_store(ptr noundef %0) #0 {
  %2 = alloca ptr, align 8
  %3 = alloca ptr, align 8
  %4 = alloca ptr, align 8
  %5 = alloca ptr, align 8
  store ptr %0, ptr %2, align 8
  call void @llvm.lifetime.start.p0(i64 8, ptr %3) #12
  %6 = load ptr, ptr %2, align 8
  %7 = getelementptr inbounds nuw %struct.PLpgSQL_execstate, ptr %6, i32 0, i32 17
  %8 = load ptr, ptr %7, align 8
  store ptr %8, ptr %3, align 8
  call void @llvm.lifetime.start.p0(i64 8, ptr %4) #12
  call void @llvm.lifetime.start.p0(i64 8, ptr %5) #12
  %9 = load ptr, ptr %3, align 8
  %10 = icmp ne ptr %9, null
  br i1 %10, label %11, label %16

11:                                               ; preds = %1
  %12 = load ptr, ptr %3, align 8
  %13 = getelementptr inbounds nuw %struct.Node, ptr %12, i32 0, i32 0
  %14 = load i32, ptr %13, align 4
  %15 = icmp eq i32 %14, 382
  br i1 %15, label %28, label %16

16:                                               ; preds = %11, %1
  br label %17

17:                                               ; preds = %16
  br i1 true, label %18, label %20

18:                                               ; preds = %17
  %19 = call zeroext i1 @errstart_cold(i32 noundef 21, ptr noundef @.str.2) #13
  br i1 %19, label %22, label %25

20:                                               ; preds = %17
  %21 = call zeroext i1 @errstart(i32 noundef 21, ptr noundef @.str.2)
  br i1 %21, label %22, label %25

22:                                               ; preds = %20, %18
  %23 = call i32 @errcode(i32 noundef 1088)
  %24 = call i32 (ptr, ...) @errmsg(ptr noundef @.str.8)
  call void @errfinish(ptr noundef @.str.4, i32 noundef 3695, ptr noundef @__func__.exec_init_tuple_store)
  br label %25

25:                                               ; preds = %22, %20, %18
  unreachable

26:                                               ; No predecessors!
  br label %27

27:                                               ; preds = %26
  br label %28

28:                                               ; preds = %27, %11
  %29 = load ptr, ptr %3, align 8
  %30 = getelementptr inbounds nuw %struct.ReturnSetInfo, ptr %29, i32 0, i32 3
  %31 = load i32, ptr %30, align 8
  %32 = and i32 %31, 2
  %33 = icmp ne i32 %32, 0
  br i1 %33, label %34, label %39

34:                                               ; preds = %28
  %35 = load ptr, ptr %3, align 8
  %36 = getelementptr inbounds nuw %struct.ReturnSetInfo, ptr %35, i32 0, i32 2
  %37 = load ptr, ptr %36, align 8
  %38 = icmp eq ptr %37, null
  br i1 %38, label %39, label %51

39:                                               ; preds = %34, %28
  br label %40

40:                                               ; preds = %39
  br i1 true, label %41, label %43

41:                                               ; preds = %40
  %42 = call zeroext i1 @errstart_cold(i32 noundef 21, ptr noundef @.str.2) #13
  br i1 %42, label %45, label %48

43:                                               ; preds = %40
  %44 = call zeroext i1 @errstart(i32 noundef 21, ptr noundef @.str.2)
  br i1 %44, label %45, label %48

45:                                               ; preds = %43, %41
  %46 = call i32 @errcode(i32 noundef 1088)
  %47 = call i32 (ptr, ...) @errmsg(ptr noundef @.str.9)
  call void @errfinish(ptr noundef @.str.4, i32 noundef 3701, ptr noundef @__func__.exec_init_tuple_store)
  br label %48

48:                                               ; preds = %45, %43, %41
  unreachable

49:                                               ; No predecessors!
  br label %50

50:                                               ; preds = %49
  br label %51

51:                                               ; preds = %50, %34
  %52 = load ptr, ptr %2, align 8
  %53 = getelementptr inbounds nuw %struct.PLpgSQL_execstate, ptr %52, i32 0, i32 15
  %54 = load ptr, ptr %53, align 8
  %55 = call ptr @MemoryContextSwitchTo(ptr noundef %54)
  store ptr %55, ptr %4, align 8
  %56 = load ptr, ptr @CurrentResourceOwner, align 8
  store ptr %56, ptr %5, align 8
  %57 = load ptr, ptr %2, align 8
  %58 = getelementptr inbounds nuw %struct.PLpgSQL_execstate, ptr %57, i32 0, i32 16
  %59 = load ptr, ptr %58, align 8
  store ptr %59, ptr @CurrentResourceOwner, align 8
  %60 = load ptr, ptr %3, align 8
  %61 = getelementptr inbounds nuw %struct.ReturnSetInfo, ptr %60, i32 0, i32 3
  %62 = load i32, ptr %61, align 8
  %63 = and i32 %62, 4
  %64 = icmp ne i32 %63, 0
  %65 = load i32, ptr @work_mem, align 4
  %66 = call ptr @tuplestore_begin_heap(i1 noundef zeroext %64, i1 noundef zeroext false, i32 noundef %65)
  %67 = load ptr, ptr %2, align 8
  %68 = getelementptr inbounds nuw %struct.PLpgSQL_execstate, ptr %67, i32 0, i32 13
  store ptr %66, ptr %68, align 8
  %69 = load ptr, ptr %5, align 8
  store ptr %69, ptr @CurrentResourceOwner, align 8
  %70 = load ptr, ptr %4, align 8
  %71 = call ptr @MemoryContextSwitchTo(ptr noundef %70)
  %72 = load ptr, ptr %3, align 8
  %73 = getelementptr inbounds nuw %struct.ReturnSetInfo, ptr %72, i32 0, i32 2
  %74 = load ptr, ptr %73, align 8
  %75 = load ptr, ptr %2, align 8
  %76 = getelementptr inbounds nuw %struct.PLpgSQL_execstate, ptr %75, i32 0, i32 14
  store ptr %74, ptr %76, align 8
  call void @llvm.lifetime.end.p0(i64 8, ptr %5) #12
  call void @llvm.lifetime.end.p0(i64 8, ptr %4) #12
  call void @llvm.lifetime.end.p0(i64 8, ptr %3) #12
  ret void
}