; Function Attrs: nounwind uwtable
define internal fastcc void @exec_init_tuple_store(ptr noundef nonnull captures(none) %0) unnamed_addr #0 {
  %2 = getelementptr inbounds nuw i8, ptr %0, i64 96
  %3 = load ptr, ptr %2, align 8
  %.not = icmp eq ptr %3, null
  br i1 %.not, label %7, label %4

4:                                                ; preds = %1
  %5 = load i32, ptr %3, align 4
  %6 = icmp eq i32 %5, 382
  br i1 %6, label %11, label %7

7:                                                ; preds = %4, %1
  %8 = tail call zeroext i1 @errstart_cold(i32 noundef 21, ptr noundef nonnull @.str.2) #13
  tail call void @llvm.assume(i1 %8)
  %9 = tail call i32 @errcode(i32 noundef 1088) #12
  %10 = tail call i32 (ptr, ...) @errmsg(ptr noundef nonnull @.str.8) #12
  tail call void @errfinish(ptr noundef nonnull @.str.4, i32 noundef 3695, ptr noundef nonnull @__func__.exec_init_tuple_store) #12
  unreachable

11:                                               ; preds = %4
  %12 = getelementptr inbounds nuw i8, ptr %3, i64 24
  %13 = load i32, ptr %12, align 8
  %14 = and i32 %13, 2
  %.not13 = icmp eq i32 %14, 0
  br i1 %.not13, label %19, label %15

15:                                               ; preds = %11
  %16 = getelementptr inbounds nuw i8, ptr %3, i64 16
  %17 = load ptr, ptr %16, align 8
  %18 = icmp eq ptr %17, null
  br i1 %18, label %19, label %23

19:                                               ; preds = %15, %11
  %20 = tail call zeroext i1 @errstart_cold(i32 noundef 21, ptr noundef nonnull @.str.2) #13
  tail call void @llvm.assume(i1 %20)
  %21 = tail call i32 @errcode(i32 noundef 1088) #12
  %22 = tail call i32 (ptr, ...) @errmsg(ptr noundef nonnull @.str.9) #12
  tail call void @errfinish(ptr noundef nonnull @.str.4, i32 noundef 3701, ptr noundef nonnull @__func__.exec_init_tuple_store) #12
  unreachable

23:                                               ; preds = %15
  %24 = getelementptr inbounds nuw i8, ptr %0, i64 80
  %25 = load ptr, ptr %24, align 8
  %26 = load ptr, ptr @CurrentMemoryContext, align 8
  store ptr %25, ptr @CurrentMemoryContext, align 8
  %27 = load ptr, ptr @CurrentResourceOwner, align 8
  %28 = getelementptr inbounds nuw i8, ptr %0, i64 88
  %29 = load ptr, ptr %28, align 8
  store ptr %29, ptr @CurrentResourceOwner, align 8
  %30 = and i32 %13, 4
  %31 = icmp ne i32 %30, 0
  %32 = load i32, ptr @work_mem, align 4
  %33 = tail call ptr @tuplestore_begin_heap(i1 noundef zeroext %31, i1 noundef zeroext false, i32 noundef %32) #12
  %34 = getelementptr inbounds nuw i8, ptr %0, i64 64
  store ptr %33, ptr %34, align 8
  store ptr %27, ptr @CurrentResourceOwner, align 8
  store ptr %26, ptr @CurrentMemoryContext, align 8
  %35 = load ptr, ptr %16, align 8
  %36 = getelementptr inbounds nuw i8, ptr %0, i64 72
  store ptr %35, ptr %36, align 8
  ret void
}